; Function Attrs: mustprogress uwtable
define dso_local noundef i64 @_ZNK4absl24synchronization_internal13KernelTimeout12MakeAbsNanosEv(ptr noundef nonnull readonly align 8 captures(none) dereferenceable(8) %0) local_unnamed_addr #5 align 2 {
  %2 = load i64, ptr %0, align 8, !tbaa !4
  %.not = icmp eq i64 %2, -1
  br i1 %.not, label %14, label %3

3:                                                ; preds = %1
  %4 = lshr i64 %2, 1
  %5 = and i64 %2, 1
  %.not13 = icmp eq i64 %5, 0
  br i1 %.not13, label %13, label %6

6:                                                ; preds = %3
  %7 = tail call noundef i64 @_ZNSt6chrono3_V212steady_clock3nowEv() #8
  %8 = sub nsw i64 %4, %7
  %.sroa.speculated = tail call i64 @llvm.smax.i64(i64 %8, i64 0)
  %9 = tail call noundef i64 @_ZN4absl19GetCurrentTimeNanosEv()
  %10 = sub nsw i64 9223372036854775807, %9
  %11 = icmp sgt i64 %8, %10
  %12 = add nsw i64 %.sroa.speculated, %9
  %.08 = select i1 %11, i64 9223372036854775807, i64 %12
  br label %14

13:                                               ; preds = %3
  %spec.store.select = tail call i64 @llvm.umax.i64(i64 %4, i64 1)
  br label %14

14:                                               ; preds = %6, %13, %1
  %.0 = phi i64 [ 9223372036854775807, %1 ], [ %.08, %6 ], [ %spec.store.select, %13 ]
  ret i64 %.0
}